; Function Attrs: nounwind uwtable
define ptr @l_Lean_LeanOptionValue_asCliFlagValue(ptr noundef %0) local_unnamed_addr #0 {
  %2 = ptrtoint ptr %0 to i64
  %3 = and i64 %2, 1
  %.not.i30 = icmp eq i64 %3, 0
  br i1 %.not.i30, label %7, label %4

4:                                                ; preds = %1
  %5 = lshr i64 %2, 1
  %6 = trunc i64 %5 to i32
  br label %lean_obj_tag.exit

7:                                                ; preds = %1
  %8 = getelementptr i8, ptr %0, i64 4
  %.val.i = load i32, ptr %8, align 4
  %9 = lshr i32 %.val.i, 24
  br label %lean_obj_tag.exit

lean_obj_tag.exit:                                ; preds = %4, %7
  %.0.i = phi i32 [ %6, %4 ], [ %9, %7 ]
  %10 = getelementptr inbounds nuw i8, ptr %0, i64 8
  switch i32 %.0.i, label %48 [
    i32 0, label %11
    i32 1, label %38
  ]

11:                                               ; preds = %lean_obj_tag.exit
  %12 = load ptr, ptr %10, align 8, !tbaa !9
  %13 = ptrtoint ptr %12 to i64
  %14 = and i64 %13, 1
  %.not36 = icmp eq i64 %14, 0
  br i1 %.not36, label %15, label %lean_inc.exit23

15:                                               ; preds = %11
  %.val.i31 = load i32, ptr %12, align 4, !tbaa !4
  %16 = icmp sgt i32 %.val.i31, 0
  br i1 %16, label %17, label %19, !prof !12

17:                                               ; preds = %15
  %18 = add nuw i32 %.val.i31, 1
  store i32 %18, ptr %12, align 4, !tbaa !4
  br label %lean_inc.exit23

19:                                               ; preds = %15
  %.not.i32 = icmp eq i32 %.val.i31, 0
  br i1 %.not.i32, label %lean_inc.exit23, label %20

20:                                               ; preds = %19
  tail call void @lean_inc_ref_cold(ptr noundef nonnull %12) #5
  br label %lean_inc.exit23

lean_inc.exit23:                                  ; preds = %20, %19, %17, %11
  br i1 %.not.i30, label %21, label %lean_dec.exit22

21:                                               ; preds = %lean_inc.exit23
  %22 = load i32, ptr %0, align 4, !tbaa !4
  %23 = icmp sgt i32 %22, 1
  br i1 %23, label %24, label %26, !prof !12

24:                                               ; preds = %21
  %25 = add nsw i32 %22, -1
  store i32 %25, ptr %0, align 4, !tbaa !4
  br label %lean_dec.exit22

26:                                               ; preds = %21
  %.not.i = icmp eq i32 %22, 0
  br i1 %.not.i, label %lean_dec.exit22, label %27

27:                                               ; preds = %26
  tail call void @lean_dec_ref_cold(ptr noundef nonnull %0) #5
  br label %lean_dec.exit22

lean_dec.exit22:                                  ; preds = %27, %26, %24, %lean_inc.exit23
  %28 = load ptr, ptr @l_Lean_LeanOptionValue_asCliFlagValue___closed__1, align 8, !tbaa !9
  %29 = tail call ptr @lean_string_append(ptr noundef %28, ptr noundef %12) #5
  br i1 %.not36, label %30, label %lean_dec.exit21

30:                                               ; preds = %lean_dec.exit22
  %31 = load i32, ptr %12, align 4, !tbaa !4
  %32 = icmp sgt i32 %31, 1
  br i1 %32, label %33, label %35, !prof !12

33:                                               ; preds = %30
  %34 = add nsw i32 %31, -1
  store i32 %34, ptr %12, align 4, !tbaa !4
  br label %lean_dec.exit21

35:                                               ; preds = %30
  %.not.i24 = icmp eq i32 %31, 0
  br i1 %.not.i24, label %lean_dec.exit21, label %36

36:                                               ; preds = %35
  tail call void @lean_dec_ref_cold(ptr noundef nonnull %12) #5
  br label %lean_dec.exit21

lean_dec.exit21:                                  ; preds = %36, %35, %33, %lean_dec.exit22
  %37 = tail call ptr @lean_string_append(ptr noundef %29, ptr noundef %28) #5
  br label %66

38:                                               ; preds = %lean_obj_tag.exit
  %39 = load i8, ptr %10, align 1, !tbaa !13
  br i1 %.not.i30, label %40, label %lean_dec.exit20

40:                                               ; preds = %38
  %41 = load i32, ptr %0, align 4, !tbaa !4
  %42 = icmp sgt i32 %41, 1
  br i1 %42, label %43, label %45, !prof !12

43:                                               ; preds = %40
  %44 = add nsw i32 %41, -1
  store i32 %44, ptr %0, align 4, !tbaa !4
  br label %lean_dec.exit20

45:                                               ; preds = %40
  %.not.i26 = icmp eq i32 %41, 0
  br i1 %.not.i26, label %lean_dec.exit20, label %46

46:                                               ; preds = %45
  tail call void @lean_dec_ref_cold(ptr noundef nonnull %0) #5
  br label %lean_dec.exit20

lean_dec.exit20:                                  ; preds = %46, %45, %43, %38
  %47 = icmp eq i8 %39, 0
  %l_Lean_LeanOptionValue_asCliFlagValue___closed__2.val = load ptr, ptr @l_Lean_LeanOptionValue_asCliFlagValue___closed__2, align 8
  %l_Lean_LeanOptionValue_asCliFlagValue___closed__3.val = load ptr, ptr @l_Lean_LeanOptionValue_asCliFlagValue___closed__3, align 8
  %.1 = select i1 %47, ptr %l_Lean_LeanOptionValue_asCliFlagValue___closed__2.val, ptr %l_Lean_LeanOptionValue_asCliFlagValue___closed__3.val
  br label %66

48:                                               ; preds = %lean_obj_tag.exit
  %49 = load ptr, ptr %10, align 8, !tbaa !9
  %50 = ptrtoint ptr %49 to i64
  %51 = and i64 %50, 1
  %.not38 = icmp eq i64 %51, 0
  br i1 %.not38, label %52, label %lean_inc.exit

52:                                               ; preds = %48
  %.val.i33 = load i32, ptr %49, align 4, !tbaa !4
  %53 = icmp sgt i32 %.val.i33, 0
  br i1 %53, label %54, label %56, !prof !12

54:                                               ; preds = %52
  %55 = add nuw i32 %.val.i33, 1
  store i32 %55, ptr %49, align 4, !tbaa !4
  br label %lean_inc.exit

56:                                               ; preds = %52
  %.not.i34 = icmp eq i32 %.val.i33, 0
  br i1 %.not.i34, label %lean_inc.exit, label %57

57:                                               ; preds = %56
  tail call void @lean_inc_ref_cold(ptr noundef nonnull %49) #5
  br label %lean_inc.exit

lean_inc.exit:                                    ; preds = %57, %56, %54, %48
  br i1 %.not.i30, label %58, label %lean_dec.exit

58:                                               ; preds = %lean_inc.exit
  %59 = load i32, ptr %0, align 4, !tbaa !4
  %60 = icmp sgt i32 %59, 1
  br i1 %60, label %61, label %63, !prof !12

61:                                               ; preds = %58
  %62 = add nsw i32 %59, -1
  store i32 %62, ptr %0, align 4, !tbaa !4
  br label %lean_dec.exit

63:                                               ; preds = %58
  %.not.i28 = icmp eq i32 %59, 0
  br i1 %.not.i28, label %lean_dec.exit, label %64

64:                                               ; preds = %63
  tail call void @lean_dec_ref_cold(ptr noundef nonnull %0) #5
  br label %lean_dec.exit

lean_dec.exit:                                    ; preds = %64, %63, %61, %lean_inc.exit
  %65 = tail call ptr @l___private_Init_Data_Repr_0__Nat_reprFast(ptr noundef %49) #5
  br label %66

66:                                               ; preds = %lean_dec.exit, %lean_dec.exit20, %lean_dec.exit21
  %.0 = phi ptr [ %65, %lean_dec.exit ], [ %.1, %lean_dec.exit20 ], [ %37, %lean_dec.exit21 ]
  ret ptr %.0
}